Certificate:
    Data:
        Version: 3 (0x2)
        Serial Number: 305419896 (0x12345678)
        Signature Algorithm: sha256WithRSAEncryption
        Issuer: CN=CA1_sha256_2048_65537_v3_ca
        Validity
            Not Before: Jul 18 09:35:15 2020 GMT
            Not After : May 19 09:35:15 2270 GMT
        Subject: CN=SRK1_sha256_2048_65537_v3_usr
        Subject Public Key Info:
            Public Key Algorithm: rsaEncryption
                RSA Public-Key: (2048 bit)
                Modulus:
                    00:c6:d6:d6:97:e3:d5:6c:fd:51:d8:d3:1f:0a:86:
                    92:fc:72:80:ee:b3:f3:a5:36:d3:15:b7:df:fd:41:
                    08:bb:49:2a:77:97:60:fd:1d:96:83:f3:b9:17:39:
                    32:1a:75:cf:a0:9f:9a:71:58:b5:00:9d:72:27:ec:
                    92:7d:9a:7d:86:e7:61:e3:99:c1:f9:23:0a:86:ab:
                    b3:1f:a6:6c:81:5c:3a:56:e2:f7:2e:c6:0b:e5:ee:
                    60:3b:49:cb:ad:34:22:3e:d1:a6:ad:d1:72:5d:6f:
                    bc:06:0c:d7:56:78:bb:43:45:34:63:66:de:0a:26:
                    29:87:cb:b1:87:66:3d:b0:76:be:51:93:01:81:e7:
                    46:6a:01:24:d2:3a:0a:8f:00:cc:74:69:28:c0:aa:
                    73:e3:21:f1:09:82:fa:2a:09:db:3f:a0:1b:b4:fb:
                    dd:83:5f:41:c5:ae:44:b7:5a:8c:1b:78:8f:92:0a:
                    ea:d4:c5:b4:03:b7:43:90:7e:53:3c:76:82:f6:41:
                    ce:aa:13:0d:1e:58:d8:49:ad:8e:c6:33:47:3d:e8:
                    9f:41:05:92:e3:5b:32:85:df:4e:35:17:a2:58:62:
                    a8:02:a7:72:7f:0e:56:ff:f6:dc:c7:46:6a:28:68:
                    c2:cf:21:11:ce:12:a8:51:92:e1:47:1f:82:e4:77:
                    12:ad
                Exponent: 65537 (0x10001)
        X509v3 extensions:
            X509v3 Basic Constraints: 
                CA:FALSE
            Netscape Comment: 
                OpenSSL Generated Certificate
            X509v3 Subject Key Identifier: 
                A3:43:E4:33:5A:99:58:23:2A:97:69:CA:0F:30:D1:82:9A:61:2A:45
            X509v3 Authority Key Identifier: 
                keyid:92:B0:7C:B5:B9:2A:B0:31:71:68:5A:5E:17:C6:75:EE:95:F4:99:E2

    Signature Algorithm: sha256WithRSAEncryption
         54:c9:e7:08:1b:e8:f0:bc:26:2d:2b:47:c4:ab:aa:46:0e:3a:
         5a:bd:e6:b3:02:14:61:79:e8:b2:b4:f2:b5:d9:88:8a:bf:fb:
         c5:3e:e5:83:30:75:f3:dd:86:f7:1e:c4:9a:b5:e7:04:4e:63:
         04:6f:28:c2:a1:7c:4c:9f:25:99:b1:3d:39:b4:e2:6c:e4:37:
         c8:90:ed:51:28:f1:7c:e6:82:10:f2:ab:a6:6f:09:7f:cc:da:
         b7:75:e5:83:ad:c8:3c:d5:ef:ac:28:01:ce:1a:e5:e4:32:3f:
         47:cb:57:aa:bf:16:1f:cb:2f:3f:82:0f:d0:39:c0:19:8c:3f:
         84:04:5a:80:4e:dd:98:52:5e:89:49:06:57:b4:8c:a7:e8:0a:
         9e:07:1d:a6:54:98:8f:d2:97:53:f5:c0:61:5e:07:9d:67:da:
         2b:fb:96:0e:da:d2:38:7c:5d:d5:b6:c3:71:2a:2f:48:a2:eb:
         2e:51:0f:56:82:30:d1:35:2f:92:b6:40:ed:bf:fd:b2:b1:b4:
         d8:8d:ef:82:c9:18:42:13:47:50:2e:ea:24:d5:f2:4b:ec:90:
         92:8d:ca:ac:ef:a4:52:49:03:e0:a2:dd:1d:74:e3:e6:00:74:
         8a:b3:cb:5a:62:8d:a2:3e:2b:f5:49:10:53:16:d0:a6:1b:16:
         c2:06:d7:b2
-----BEGIN CERTIFICATE-----
MIIDSTCCAjGgAwIBAgIEEjRWeDANBgkqhkiG9w0BAQsFADAmMSQwIgYDVQQDFBtD
QTFfc2hhMjU2XzIwNDhfNjU1MzdfdjNfY2EwIBcNMjAwNzE4MDkzNTE1WhgPMjI3
MDA1MTkwOTM1MTVaMCgxJjAkBgNVBAMMHVNSSzFfc2hhMjU2XzIwNDhfNjU1Mzdf
djNfdXNyMIIBIjANBgkqhkiG9w0BAQEFAAOCAQ8AMIIBCgKCAQEAxtbWl+PVbP1R
2NMfCoaS/HKA7rPzpTbTFbff/UEIu0kqd5dg/R2Wg/O5FzkyGnXPoJ+acVi1AJ1y
J+ySfZp9hudh45nB+SMKhquzH6ZsgVw6VuL3LsYL5e5gO0nLrTQiPtGmrdFyXW+8
BgzXVni7Q0U0Y2beCiYph8uxh2Y9sHa+UZMBgedGagEk0joKjwDMdGkowKpz4yHx
CYL6KgnbP6AbtPvdg19Bxa5Et1qMG3iPkgrq1MW0A7dDkH5TPHaC9kHOqhMNHljY
Sa2OxjNHPeifQQWS41syhd9ONReiWGKoAqdyfw5W//bcx0ZqKGjCzyERzhKoUZLh
Rx+C5HcSrQIDAQABo3sweTAJBgNVHRMEAjAAMCwGCWCGSAGG+EIBDQQfFh1PcGVu
U1NMIEdlbmVyYXRlZCBDZXJ0aWZpY2F0ZTAdBgNVHQ4EFgQUo0PkM1qZWCMql2nK
DzDRgpphKkUwHwYDVR0jBBgwFoAUkrB8tbkqsDFxaFpeF8Z17pX0meIwDQYJKoZI
hvcNAQELBQADggEBAFTJ5wgb6PC8Ji0rR8SrqkYOOlq95rMCFGF56LK08rXZiIq/
+8U+5YMwdfPdhvcexJq15wROYwRvKMKhfEyfJZmxPTm04mzkN8iQ7VEo8XzmghDy
q6ZvCX/M2rd15YOtyDzV76woAc4a5eQyP0fLV6q/Fh/LLz+CD9A5wBmMP4QEWoBO
3ZhSXolJBle0jKfoCp4HHaZUmI/Sl1P1wGFeB51n2iv7lg7a0jh8XdW2w3EqL0ii
6y5RD1aCMNE1L5K2QO2//bKxtNiN74LJGEITR1Au6iTV8kvskJKNyqzvpFJJA+Ci
3R104+YAdIqzy1pijaI+K/VJEFMW0KYbFsIG17I=
-----END CERTIFICATE-----
